target datalayout = "e-m:e-p270:32:32-p271:32:32-p272:64:64-i64:64-i128:128-f80:128-n8:16:32:64-S128"
target triple = "x86_64-pc-linux-gnu"

%struct.H5O_mesg_loc_t = type { i32, i64 }
%struct.H5SM_mesg_key_t = type { ptr, ptr, ptr, i64, %struct.H5SM_sohm_t }
%struct.H5SM_sohm_t = type { i32, i32, i32, %union.anon.0 }
%union.anon.0 = type { %struct.H5O_mesg_loc_t }
%struct.H5SM_incr_ref_opdata_t = type { ptr, i8, %union.H5O_fheap_id_t }
%union.H5O_fheap_id_t = type { i64 }
%struct.H5SM_heap_loc_t = type { i64, %union.H5O_fheap_id_t }

@H5SM_init_g = global i8 0, align 1
@H5_libterm_g = external global i8, align 1
@.str.4 = private unnamed_addr constant [98 x i8] c"generated/home/dtcxzyw/WorkSpace/Projects/compilers/llvm-opt-benchmark/bench/hdf5/hdf5/src/H5SM.c\00", align 1
@H5E_SOHM_g = external global i64, align 8
@H5E_CANTINSERT_g = external global i64, align 8
@.str.102 = private unnamed_addr constant [43 x i8] c"unable to insert message into fractal heap\00", align 1
@__func__.H5SM__incr_ref = private unnamed_addr constant [15 x i8] c"H5SM__incr_ref\00", align 1

; Function Attrs: nounwind uwtable
define internal i32 @H5SM__incr_ref(ptr noundef %0, ptr noundef %1, ptr noundef %2) #0 {
  %4 = alloca ptr, align 8
  %5 = alloca ptr, align 8
  %6 = alloca ptr, align 8
  %7 = alloca ptr, align 8
  %8 = alloca ptr, align 8
  %9 = alloca i32, align 4
  %10 = alloca i8, align 1
  store ptr %0, ptr %4, align 8, !tbaa !57
  store ptr %1, ptr %5, align 8, !tbaa !57
  store ptr %2, ptr %6, align 8, !tbaa !140
  call void @llvm.lifetime.start.p0(i64 8, ptr %7) #8
  %11 = load ptr, ptr %4, align 8, !tbaa !57
  store ptr %11, ptr %7, align 8, !tbaa !57
  call void @llvm.lifetime.start.p0(i64 8, ptr %8) #8
  %12 = load ptr, ptr %5, align 8, !tbaa !57
  store ptr %12, ptr %8, align 8, !tbaa !57
  call void @llvm.lifetime.start.p0(i64 4, ptr %9) #8
  store i32 0, ptr %9, align 4, !tbaa !14
  call void @llvm.lifetime.start.p0(i64 1, ptr %10) #8
  store i8 0, ptr %10, align 1, !tbaa !18
  %13 = load i8, ptr @H5SM_init_g, align 1, !tbaa !18, !range !20, !noundef !21
  %14 = trunc i8 %13 to i1
  br i1 %14, label %19, label %15

15:                                               ; preds = %3
  %16 = load i8, ptr @H5_libterm_g, align 1, !tbaa !18, !range !20, !noundef !21
  %17 = trunc i8 %16 to i1
  %18 = xor i1 %17, true
  br label %19

19:                                               ; preds = %15, %3
  %20 = phi i1 [ true, %3 ], [ %18, %15 ]
  %21 = xor i1 %20, true
  %22 = xor i1 %21, true
  %23 = zext i1 %22 to i32
  %24 = sext i32 %23 to i64
  %25 = call i64 @llvm.expect.i64(i64 %24, i64 1)
  %26 = icmp ne i64 %25, 0
  br i1 %26, label %27, label %94

27:                                               ; preds = %19
  %28 = load ptr, ptr %7, align 8, !tbaa !57
  %29 = getelementptr inbounds nuw %struct.H5SM_sohm_t, ptr %28, i32 0, i32 0
  %30 = load i32, ptr %29, align 8, !tbaa !99
  %31 = icmp eq i32 %30, 1
  br i1 %31, label %32, label %78

32:                                               ; preds = %27
  %33 = load ptr, ptr %8, align 8, !tbaa !57
  %34 = getelementptr inbounds nuw %struct.H5SM_incr_ref_opdata_t, ptr %33, i32 0, i32 0
  %35 = load ptr, ptr %34, align 8, !tbaa !102
  %36 = getelementptr inbounds nuw %struct.H5SM_mesg_key_t, ptr %35, i32 0, i32 1
  %37 = load ptr, ptr %36, align 8, !tbaa !89
  %38 = load ptr, ptr %8, align 8, !tbaa !57
  %39 = getelementptr inbounds nuw %struct.H5SM_incr_ref_opdata_t, ptr %38, i32 0, i32 0
  %40 = load ptr, ptr %39, align 8, !tbaa !102
  %41 = getelementptr inbounds nuw %struct.H5SM_mesg_key_t, ptr %40, i32 0, i32 3
  %42 = load i64, ptr %41, align 8, !tbaa !91
  %43 = load ptr, ptr %8, align 8, !tbaa !57
  %44 = getelementptr inbounds nuw %struct.H5SM_incr_ref_opdata_t, ptr %43, i32 0, i32 0
  %45 = load ptr, ptr %44, align 8, !tbaa !102
  %46 = getelementptr inbounds nuw %struct.H5SM_mesg_key_t, ptr %45, i32 0, i32 2
  %47 = load ptr, ptr %46, align 8, !tbaa !90
  %48 = load ptr, ptr %7, align 8, !tbaa !57
  %49 = getelementptr inbounds nuw %struct.H5SM_sohm_t, ptr %48, i32 0, i32 3
  %50 = getelementptr inbounds nuw %struct.H5SM_heap_loc_t, ptr %49, i32 0, i32 1
  %51 = call i32 @H5HF_insert(ptr noundef %37, i64 noundef %42, ptr noundef %47, ptr noundef %50)
  %52 = icmp slt i32 %51, 0
  br i1 %52, label %53, label %72

53:                                               ; preds = %32
  br label %54

54:                                               ; preds = %53
  br label %55

55:                                               ; preds = %54
  br label %56

56:                                               ; preds = %55
  %57 = load i64, ptr @H5E_SOHM_g, align 8, !tbaa !16
  %58 = load i64, ptr @H5E_CANTINSERT_g, align 8, !tbaa !16
  %59 = call i32 (ptr, ptr, i32, i64, i64, ptr, ...) @H5E_printf_stack(ptr noundef @.str.4, ptr noundef @__func__.H5SM__incr_ref, i32 noundef 1173, i64 noundef %57, i64 noundef %58, ptr noundef @.str.102)
  br label %60

60:                                               ; preds = %56
  br label %61

61:                                               ; preds = %60
  store i8 1, ptr %10, align 1, !tbaa !18
  %62 = load i8, ptr %10, align 1, !tbaa !18, !range !20, !noundef !21
  %63 = trunc i8 %62 to i1
  %64 = zext i1 %63 to i8
  store i8 %64, ptr %10, align 1, !tbaa !18
  br label %65

65:                                               ; preds = %61
  br label %66

66:                                               ; preds = %65
  br label %67

67:                                               ; preds = %66
  store i32 -1, ptr %9, align 4, !tbaa !14
  br label %93

68:                                               ; No predecessors!
  br label %69

69:                                               ; preds = %68
  br label %70

70:                                               ; preds = %69
  br label %71

71:                                               ; preds = %70
  br label %72

72:                                               ; preds = %71, %32
  %73 = load ptr, ptr %7, align 8, !tbaa !57
  %74 = getelementptr inbounds nuw %struct.H5SM_sohm_t, ptr %73, i32 0, i32 0
  store i32 0, ptr %74, align 8, !tbaa !99
  %75 = load ptr, ptr %7, align 8, !tbaa !57
  %76 = getelementptr inbounds nuw %struct.H5SM_sohm_t, ptr %75, i32 0, i32 3
  %77 = getelementptr inbounds nuw %struct.H5SM_heap_loc_t, ptr %76, i32 0, i32 0
  store i64 2, ptr %77, align 8, !tbaa !101
  br label %84

78:                                               ; preds = %27
  %79 = load ptr, ptr %7, align 8, !tbaa !57
  %80 = getelementptr inbounds nuw %struct.H5SM_sohm_t, ptr %79, i32 0, i32 3
  %81 = getelementptr inbounds nuw %struct.H5SM_heap_loc_t, ptr %80, i32 0, i32 0
  %82 = load i64, ptr %81, align 8, !tbaa !101
  %83 = add i64 %82, 1
  store i64 %83, ptr %81, align 8, !tbaa !101
  br label %84

84:                                               ; preds = %78, %72
  %85 = load ptr, ptr %6, align 8, !tbaa !140
  store i8 1, ptr %85, align 1, !tbaa !18
  %86 = load ptr, ptr %8, align 8, !tbaa !57
  %87 = getelementptr inbounds nuw %struct.H5SM_incr_ref_opdata_t, ptr %86, i32 0, i32 2
  %88 = load ptr, ptr %7, align 8, !tbaa !57
  %89 = getelementptr inbounds nuw %struct.H5SM_sohm_t, ptr %88, i32 0, i32 3
  %90 = getelementptr inbounds nuw %struct.H5SM_heap_loc_t, ptr %89, i32 0, i32 1
  call void @llvm.memcpy.p0.p0.i64(ptr align 8 %87, ptr align 8 %90, i64 8, i1 false), !tbaa.struct !100
  %91 = load ptr, ptr %8, align 8, !tbaa !57
  %92 = getelementptr inbounds nuw %struct.H5SM_incr_ref_opdata_t, ptr %91, i32 0, i32 1
  store i8 1, ptr %92, align 8, !tbaa !104
  br label %93

93:                                               ; preds = %84, %67
  br label %94

94:                                               ; preds = %93, %19
  %95 = load i32, ptr %9, align 4, !tbaa !14
  call void @llvm.lifetime.end.p0(i64 1, ptr %10) #8
  call void @llvm.lifetime.end.p0(i64 4, ptr %9) #8
  call void @llvm.lifetime.end.p0(i64 8, ptr %8) #8
  call void @llvm.lifetime.end.p0(i64 8, ptr %7) #8
  ret i32 %95
}