; Function Attrs: nounwind uwtable
define internal range(i32 -1, 1) i32 @H5SM__incr_ref(ptr noundef %0, ptr noundef captures(none) %1, ptr noundef writeonly captures(none) %2) #0 {
  %4 = load i8, ptr @H5SM_init_g, align 1, !tbaa !9, !range !11, !noundef !12
  %5 = trunc nuw i8 %4 to i1
  %6 = load i8, ptr @H5_libterm_g, align 1, !range !11
  %7 = trunc nuw i8 %6 to i1
  %8 = xor i1 %7, true
  %9 = select i1 %5, i1 true, i1 %8
  br i1 %9, label %10, label %39, !prof !13

10:                                               ; preds = %3
  %11 = load i32, ptr %0, align 8, !tbaa !87
  %12 = icmp eq i32 %11, 1
  br i1 %12, label %13, label %30

13:                                               ; preds = %10
  %14 = load ptr, ptr %1, align 8, !tbaa !90
  %15 = getelementptr inbounds nuw i8, ptr %14, i64 8
  %16 = load ptr, ptr %15, align 8, !tbaa !76
  %17 = getelementptr inbounds nuw i8, ptr %14, i64 24
  %18 = load i64, ptr %17, align 8, !tbaa !78
  %19 = getelementptr inbounds nuw i8, ptr %14, i64 16
  %20 = load ptr, ptr %19, align 8, !tbaa !77
  %21 = getelementptr inbounds nuw i8, ptr %0, i64 24
  %22 = tail call i32 @H5HF_insert(ptr noundef %16, i64 noundef %18, ptr noundef %20, ptr noundef nonnull %21) #11
  %23 = icmp slt i32 %22, 0
  br i1 %23, label %24, label %28

24:                                               ; preds = %13
  %25 = load i64, ptr @H5E_SOHM_g, align 8, !tbaa !7
  %26 = load i64, ptr @H5E_CANTINSERT_g, align 8, !tbaa !7
  %27 = tail call i32 (ptr, ptr, i32, i64, i64, ptr, ...) @H5E_printf_stack(ptr noundef nonnull @.str.4, ptr noundef nonnull @__func__.H5SM__incr_ref, i32 noundef 1173, i64 noundef %25, i64 noundef %26, ptr noundef nonnull @.str.102) #11
  br label %39

28:                                               ; preds = %13
  %29 = getelementptr inbounds nuw i8, ptr %0, i64 16
  store i32 0, ptr %0, align 8, !tbaa !87
  store i64 2, ptr %29, align 8, !tbaa !89
  br label %34

30:                                               ; preds = %10
  %31 = getelementptr inbounds nuw i8, ptr %0, i64 16
  %32 = load i64, ptr %31, align 8, !tbaa !89
  %33 = add i64 %32, 1
  store i64 %33, ptr %31, align 8, !tbaa !89
  br label %34

34:                                               ; preds = %30, %28
  store i8 1, ptr %2, align 1, !tbaa !9
  %35 = getelementptr inbounds nuw i8, ptr %1, i64 16
  %36 = getelementptr inbounds nuw i8, ptr %0, i64 24
  %37 = load i64, ptr %36, align 8, !tbaa !89
  store i64 %37, ptr %35, align 8, !tbaa !89
  %38 = getelementptr inbounds nuw i8, ptr %1, i64 8
  store i8 1, ptr %38, align 8, !tbaa !92
  br label %39

39:                                               ; preds = %24, %34, %3
  %.0 = phi i32 [ -1, %24 ], [ 0, %34 ], [ 0, %3 ]
  ret i32 %.0
}